; Function Attrs: mustprogress nounwind uwtable
define dso_local void @_ZN4llvm18AArch64InstPrinter15printMatrixTileEPKNS_6MCInstEjRKNS_15MCSubtargetInfoERNS_11raw_ostreamE(ptr noundef nonnull align 8 dereferenceable(58) %0, ptr nocapture noundef readonly %1, i32 noundef %2, ptr nocapture nonnull readnone align 8 %3, ptr noundef nonnull align 8 dereferenceable(48) %4) local_unnamed_addr #1 align 2 {
  %6 = getelementptr inbounds nuw i8, ptr %1, i64 16
  %7 = zext i32 %2 to i64
  %8 = load ptr, ptr %6, align 8
  %9 = getelementptr inbounds %"class.llvm::MCOperand", ptr %8, i64 %7, i32 1
  %10 = load i32, ptr %9, align 8
  %11 = load ptr, ptr %0, align 8
  %12 = getelementptr inbounds i8, ptr %11, i64 40
  %13 = load ptr, ptr %12, align 8
  tail call void %13(ptr noundef nonnull align 8 dereferenceable(58) %0, ptr noundef nonnull align 8 dereferenceable(48) %4, i32 %10) #22
  ret void
}